target datalayout = "e-m:e-p270:32:32-p271:32:32-p272:64:64-i64:64-i128:128-f80:128-n8:16:32:64-S128"
target triple = "x86_64-pc-linux-gnu"

%struct.QemuMutex = type { %union.pthread_mutex_t, i8 }
%union.pthread_mutex_t = type { %struct.__pthread_mutex_s }
%struct.__pthread_mutex_s = type { i32, i32, i32, i32, i32, i16, i16, %struct.__pthread_internal_list }
%struct.__pthread_internal_list = type { ptr, ptr }
%struct.Job = type { ptr, ptr, ptr, i8, i8, ptr, ptr, %struct.ProgressMeter, ptr, i32, i32, %struct.QEMUTimer, i32, i8, i8, i8, i8, i8, i8, i32, ptr, %struct.NotifierList, %struct.NotifierList, %struct.NotifierList, %struct.NotifierList, %struct.NotifierList, %struct.anon.1, ptr, %struct.anon.2 }
%struct.ProgressMeter = type { i64, i64, %struct.QemuMutex }
%struct.QEMUTimer = type { i64, ptr, ptr, ptr, ptr, i32, i32 }
%struct.NotifierList = type { %struct.anon.0 }
%struct.anon.0 = type { ptr }
%struct.anon.1 = type { ptr, ptr }
%struct.anon.2 = type { ptr, ptr }
%struct.JobDriver = type { i64, i32, ptr, ptr, ptr, ptr, ptr, ptr, ptr, ptr, ptr, ptr, ptr }

@qemu_mutex_lock_func = external global ptr, align 8
@job_mutex = dso_local global %struct.QemuMutex zeroinitializer, align 8
@.str = private unnamed_addr constant [14 x i8] c"../qemu/job.c\00", align 1
@.str.6 = private unnamed_addr constant [22 x i8] c"qemu_in_main_thread()\00", align 1
@__PRETTY_FUNCTION__.job_unref_locked = private unnamed_addr constant [29 x i8] c"void job_unref_locked(Job *)\00", align 1
@.str.12 = private unnamed_addr constant [31 x i8] c"job->status == JOB_STATUS_NULL\00", align 1
@.str.13 = private unnamed_addr constant [34 x i8] c"!timer_pending(&job->sleep_timer)\00", align 1
@.str.14 = private unnamed_addr constant [10 x i8] c"!job->txn\00", align 1

; Function Attrs: nounwind sspstrong uwtable
define dso_local void @job_lock() #0 {
  %1 = alloca ptr, align 8
  %2 = alloca ptr, align 8
  %3 = alloca ptr, align 8
  call void @llvm.lifetime.start.p0(i64 8, ptr %1) #16
  br label %4

4:                                                ; preds = %0
  br i1 false, label %5, label %6

5:                                                ; preds = %4
  call void @qemu_build_not_reached_always() #17, !srcloc !4
  unreachable

6:                                                ; preds = %4
  %7 = load atomic i64, ptr @qemu_mutex_lock_func monotonic, align 8
  store i64 %7, ptr %3, align 8
  %8 = load ptr, ptr %3, align 8
  store ptr %8, ptr %2, align 8
  %9 = load ptr, ptr %2, align 8
  store ptr %9, ptr %1, align 8
  %10 = load ptr, ptr %1, align 8
  call void %10(ptr noundef @job_mutex, ptr noundef @.str, i32 noundef 101)
  call void @llvm.lifetime.end.p0(i64 8, ptr %1) #16
  ret void
}

; Function Attrs: nounwind sspstrong uwtable
define dso_local void @job_unlock() #0 {
  call void @qemu_mutex_unlock_impl(ptr noundef @job_mutex, ptr noundef @.str, i32 noundef 106)
  ret void
}

; Function Attrs: nounwind sspstrong uwtable
define dso_local void @job_unref_locked(ptr noundef %0) #0 {
  %2 = alloca ptr, align 8
  store ptr %0, ptr %2, align 8
  br label %3

3:                                                ; preds = %1
  %4 = call zeroext i1 @qemu_in_main_thread()
  br i1 %4, label %5, label %6

5:                                                ; preds = %3
  br label %7

6:                                                ; preds = %3
  call void @__assert_fail(ptr noundef @.str.6, ptr noundef @.str, i32 noundef 459, ptr noundef @__PRETTY_FUNCTION__.job_unref_locked) #20
  unreachable

7:                                                ; preds = %5
  br label %8

8:                                                ; preds = %7
  %9 = load ptr, ptr %2, align 8
  %10 = getelementptr inbounds nuw %struct.Job, ptr %9, i32 0, i32 9
  %11 = load i32, ptr %10, align 8
  %12 = add i32 %11, -1
  store i32 %12, ptr %10, align 8
  %13 = icmp eq i32 %12, 0
  br i1 %13, label %14, label %91

14:                                               ; preds = %8
  %15 = load ptr, ptr %2, align 8
  %16 = getelementptr inbounds nuw %struct.Job, ptr %15, i32 0, i32 10
  %17 = load i32, ptr %16, align 4
  %18 = icmp eq i32 %17, 10
  br i1 %18, label %19, label %20

19:                                               ; preds = %14
  br label %21

20:                                               ; preds = %14
  call void @__assert_fail(ptr noundef @.str.12, ptr noundef @.str, i32 noundef 462, ptr noundef @__PRETTY_FUNCTION__.job_unref_locked) #20
  unreachable

21:                                               ; preds = %19
  %22 = load ptr, ptr %2, align 8
  %23 = getelementptr inbounds nuw %struct.Job, ptr %22, i32 0, i32 11
  %24 = call zeroext i1 @timer_pending(ptr noundef %23)
  br i1 %24, label %26, label %25

25:                                               ; preds = %21
  br label %27

26:                                               ; preds = %21
  call void @__assert_fail(ptr noundef @.str.13, ptr noundef @.str, i32 noundef 463, ptr noundef @__PRETTY_FUNCTION__.job_unref_locked) #20
  unreachable

27:                                               ; preds = %25
  %28 = load ptr, ptr %2, align 8
  %29 = getelementptr inbounds nuw %struct.Job, ptr %28, i32 0, i32 27
  %30 = load ptr, ptr %29, align 8
  %31 = icmp ne ptr %30, null
  br i1 %31, label %33, label %32

32:                                               ; preds = %27
  br label %34

33:                                               ; preds = %27
  call void @__assert_fail(ptr noundef @.str.14, ptr noundef @.str, i32 noundef 464, ptr noundef @__PRETTY_FUNCTION__.job_unref_locked) #20
  unreachable

34:                                               ; preds = %32
  %35 = load ptr, ptr %2, align 8
  %36 = getelementptr inbounds nuw %struct.Job, ptr %35, i32 0, i32 1
  %37 = load ptr, ptr %36, align 8
  %38 = getelementptr inbounds nuw %struct.JobDriver, ptr %37, i32 0, i32 12
  %39 = load ptr, ptr %38, align 8
  %40 = icmp ne ptr %39, null
  br i1 %40, label %41, label %48

41:                                               ; preds = %34
  call void @job_unlock()
  %42 = load ptr, ptr %2, align 8
  %43 = getelementptr inbounds nuw %struct.Job, ptr %42, i32 0, i32 1
  %44 = load ptr, ptr %43, align 8
  %45 = getelementptr inbounds nuw %struct.JobDriver, ptr %44, i32 0, i32 12
  %46 = load ptr, ptr %45, align 8
  %47 = load ptr, ptr %2, align 8
  call void %46(ptr noundef %47)
  call void @job_lock()
  br label %48

48:                                               ; preds = %41, %34
  br label %49

49:                                               ; preds = %48
  %50 = load ptr, ptr %2, align 8
  %51 = getelementptr inbounds nuw %struct.Job, ptr %50, i32 0, i32 26
  %52 = getelementptr inbounds nuw %struct.anon.1, ptr %51, i32 0, i32 0
  %53 = load ptr, ptr %52, align 8
  %54 = icmp ne ptr %53, null
  br i1 %54, label %55, label %66

55:                                               ; preds = %49
  %56 = load ptr, ptr %2, align 8
  %57 = getelementptr inbounds nuw %struct.Job, ptr %56, i32 0, i32 26
  %58 = getelementptr inbounds nuw %struct.anon.1, ptr %57, i32 0, i32 1
  %59 = load ptr, ptr %58, align 8
  %60 = load ptr, ptr %2, align 8
  %61 = getelementptr inbounds nuw %struct.Job, ptr %60, i32 0, i32 26
  %62 = getelementptr inbounds nuw %struct.anon.1, ptr %61, i32 0, i32 0
  %63 = load ptr, ptr %62, align 8
  %64 = getelementptr inbounds nuw %struct.Job, ptr %63, i32 0, i32 26
  %65 = getelementptr inbounds nuw %struct.anon.1, ptr %64, i32 0, i32 1
  store ptr %59, ptr %65, align 8
  br label %66

66:                                               ; preds = %55, %49
  %67 = load ptr, ptr %2, align 8
  %68 = getelementptr inbounds nuw %struct.Job, ptr %67, i32 0, i32 26
  %69 = getelementptr inbounds nuw %struct.anon.1, ptr %68, i32 0, i32 0
  %70 = load ptr, ptr %69, align 8
  %71 = load ptr, ptr %2, align 8
  %72 = getelementptr inbounds nuw %struct.Job, ptr %71, i32 0, i32 26
  %73 = getelementptr inbounds nuw %struct.anon.1, ptr %72, i32 0, i32 1
  %74 = load ptr, ptr %73, align 8
  store ptr %70, ptr %74, align 8
  %75 = load ptr, ptr %2, align 8
  %76 = getelementptr inbounds nuw %struct.Job, ptr %75, i32 0, i32 26
  %77 = getelementptr inbounds nuw %struct.anon.1, ptr %76, i32 0, i32 0
  store ptr null, ptr %77, align 8
  %78 = load ptr, ptr %2, align 8
  %79 = getelementptr inbounds nuw %struct.Job, ptr %78, i32 0, i32 26
  %80 = getelementptr inbounds nuw %struct.anon.1, ptr %79, i32 0, i32 1
  store ptr null, ptr %80, align 8
  br label %81

81:                                               ; preds = %66
  %82 = load ptr, ptr %2, align 8
  %83 = getelementptr inbounds nuw %struct.Job, ptr %82, i32 0, i32 7
  call void @progress_destroy(ptr noundef %83)
  %84 = load ptr, ptr %2, align 8
  %85 = getelementptr inbounds nuw %struct.Job, ptr %84, i32 0, i32 20
  %86 = load ptr, ptr %85, align 8
  call void @error_free(ptr noundef %86)
  %87 = load ptr, ptr %2, align 8
  %88 = getelementptr inbounds nuw %struct.Job, ptr %87, i32 0, i32 0
  %89 = load ptr, ptr %88, align 8
  call void @g_free(ptr noundef %89)
  %90 = load ptr, ptr %2, align 8
  call void @g_free(ptr noundef %90)
  br label %91

91:                                               ; preds = %81, %8
  ret void
}