; Function Attrs: nounwind sspstrong uwtable
define dso_local void @job_unref_locked(ptr noundef %0) local_unnamed_addr #0 {
  %2 = tail call zeroext i1 @qemu_in_main_thread() #15
  br i1 %2, label %4, label %3

3:                                                ; preds = %1
  tail call void @__assert_fail(ptr noundef nonnull @.str.6, ptr noundef nonnull @.str, i32 noundef 459, ptr noundef nonnull @__PRETTY_FUNCTION__.job_unref_locked) #17
  unreachable

4:                                                ; preds = %1
  %5 = getelementptr inbounds nuw i8, ptr %0, i64 120
  %6 = load i32, ptr %5, align 8
  %7 = add i32 %6, -1
  store i32 %7, ptr %5, align 8
  %8 = icmp eq i32 %7, 0
  br i1 %8, label %9, label %43

9:                                                ; preds = %4
  %10 = getelementptr inbounds nuw i8, ptr %0, i64 124
  %11 = load i32, ptr %10, align 4
  %12 = icmp eq i32 %11, 10
  br i1 %12, label %14, label %13

13:                                               ; preds = %9
  tail call void @__assert_fail(ptr noundef nonnull @.str.12, ptr noundef nonnull @.str, i32 noundef 462, ptr noundef nonnull @__PRETTY_FUNCTION__.job_unref_locked) #17
  unreachable

14:                                               ; preds = %9
  %15 = getelementptr inbounds nuw i8, ptr %0, i64 128
  %16 = tail call zeroext i1 @timer_pending(ptr noundef nonnull %15) #15
  br i1 %16, label %17, label %18

17:                                               ; preds = %14
  tail call void @__assert_fail(ptr noundef nonnull @.str.13, ptr noundef nonnull @.str, i32 noundef 463, ptr noundef nonnull @__PRETTY_FUNCTION__.job_unref_locked) #17
  unreachable

18:                                               ; preds = %14
  %19 = getelementptr inbounds nuw i8, ptr %0, i64 256
  %20 = load ptr, ptr %19, align 8
  %.not = icmp eq ptr %20, null
  br i1 %.not, label %22, label %21

21:                                               ; preds = %18
  tail call void @__assert_fail(ptr noundef nonnull @.str.14, ptr noundef nonnull @.str, i32 noundef 464, ptr noundef nonnull @__PRETTY_FUNCTION__.job_unref_locked) #17
  unreachable

22:                                               ; preds = %18
  %23 = getelementptr inbounds nuw i8, ptr %0, i64 8
  %24 = load ptr, ptr %23, align 8
  %25 = getelementptr inbounds nuw i8, ptr %24, i64 96
  %26 = load ptr, ptr %25, align 8
  %.not18 = icmp eq ptr %26, null
  br i1 %.not18, label %33, label %27

27:                                               ; preds = %22
  tail call void @qemu_mutex_unlock_impl(ptr noundef nonnull @job_mutex, ptr noundef nonnull @.str, i32 noundef 106) #15
  %28 = load ptr, ptr %23, align 8
  %29 = getelementptr inbounds nuw i8, ptr %28, i64 96
  %30 = load ptr, ptr %29, align 8
  tail call void %30(ptr noundef nonnull %0) #15
  %31 = load atomic i64, ptr @qemu_mutex_lock_func monotonic, align 8
  %32 = inttoptr i64 %31 to ptr
  tail call void %32(ptr noundef nonnull @job_mutex, ptr noundef nonnull @.str, i32 noundef 101) #15
  br label %33

33:                                               ; preds = %22, %27
  %34 = getelementptr inbounds nuw i8, ptr %0, i64 240
  %35 = load ptr, ptr %34, align 8
  %.not19 = icmp eq ptr %35, null
  %.phi.trans.insert = getelementptr inbounds nuw i8, ptr %0, i64 248
  %.pre20 = load ptr, ptr %.phi.trans.insert, align 8
  br i1 %.not19, label %._crit_edge, label %36

36:                                               ; preds = %33
  %37 = getelementptr inbounds nuw i8, ptr %35, i64 248
  store ptr %.pre20, ptr %37, align 8
  %.pre = load ptr, ptr %34, align 8
  br label %._crit_edge

._crit_edge:                                      ; preds = %33, %36
  %38 = phi ptr [ %.pre, %36 ], [ null, %33 ]
  store ptr %38, ptr %.pre20, align 8
  %39 = getelementptr inbounds nuw i8, ptr %0, i64 48
  tail call void @llvm.memset.p0.i64(ptr noundef nonnull align 8 dereferenceable(16) %34, i8 0, i64 16, i1 false)
  tail call void @progress_destroy(ptr noundef nonnull %39) #15
  %40 = getelementptr inbounds nuw i8, ptr %0, i64 192
  %41 = load ptr, ptr %40, align 8
  tail call void @error_free(ptr noundef %41) #15
  %42 = load ptr, ptr %0, align 8
  tail call void @g_free(ptr noundef %42) #15
  tail call void @g_free(ptr noundef nonnull %0) #15
  br label %43

43:                                               ; preds = %._crit_edge, %4
  ret void
}